target datalayout = "e-m:e-p270:32:32-p271:32:32-p272:64:64-i64:64-i128:128-f80:128-n8:16:32:64-S128"
target triple = "x86_64-unknown-linux-gnu"

%"struct.smt::theory_special_relations::relation" = type { ptr, %class.obj_ref, i32, ptr, %class.ptr_vector, i32, %class.svector, %"struct.smt::theory_special_relations::graph", %class.union_find_default_ctx, %class.union_find, %class.svector.16 }
%class.obj_ref = type { ptr, ptr }
%class.ptr_vector = type { %class.vector }
%class.vector = type { ptr }
%class.svector = type { %class.vector.0 }
%class.vector.0 = type { ptr }
%"struct.smt::theory_special_relations::graph" = type { %class.dl_graph }
%class.dl_graph = type { %"struct.dl_graph<smt::theory_special_relations::int_ext>::stats", %class.vector.1, %class.vector.2, %class.vector.3, %class.vector.4, %class.vector.4, %class.svector.5, %class.vector.1, %class.svector.7, %class.svector.9, %class.svector.9, %class.heap, i32, i32, %class.svector.9, %class.svector.7, %class.svector.9, %class.svector.9, %class.svector.9, i32, i32, %class.svector.11, %class.svector.9, i32, i32, %class.svector.9, %class.svector.9, %class.svector.9, %class.svector.9, %"struct.dl_graph<smt::theory_special_relations::int_ext>::dfs_state", %"struct.dl_graph<smt::theory_special_relations::int_ext>::dfs_state" }
%"struct.dl_graph<smt::theory_special_relations::int_ext>::stats" = type { i32, i32, i32, i32, i32 }
%class.vector.2 = type { ptr }
%class.vector.3 = type { ptr }
%class.vector.4 = type { ptr }
%class.svector.5 = type { %class.vector.6 }
%class.vector.6 = type { ptr }
%class.vector.1 = type { ptr }
%class.heap = type { %class.dl_var_lt, %class.svector.9, %class.svector.9 }
%class.dl_var_lt = type { ptr }
%class.svector.7 = type { %class.vector.8 }
%class.vector.8 = type { ptr }
%class.svector.11 = type { %class.vector.12 }
%class.vector.12 = type { ptr }
%class.svector.9 = type { %class.vector.10 }
%class.vector.10 = type { ptr }
%"struct.dl_graph<smt::theory_special_relations::int_ext>::dfs_state" = type <{ %class.vector.1, %class.svector.9, %class.svector.9, %class.heap.13, i32, [4 x i8] }>
%class.heap.13 = type { %"class.dl_graph<smt::theory_special_relations::int_ext>::dfs_state::hp_lt", %class.svector.9, %class.svector.9 }
%"class.dl_graph<smt::theory_special_relations::int_ext>::dfs_state::hp_lt" = type { ptr, ptr }
%class.union_find_default_ctx = type { %class.trail_stack }
%class.trail_stack = type { %class.ptr_vector.14, %class.svector.11, %class.region }
%class.ptr_vector.14 = type { %class.vector.15 }
%class.vector.15 = type { ptr }
%class.region = type { ptr, ptr, ptr, ptr, ptr }
%class.union_find = type { ptr, ptr, %class.svector.11, %class.svector.11, %class.svector.11, %"class.union_find<>::mk_var_trail" }
%"class.union_find<>::mk_var_trail" = type { %class.trail, ptr }
%class.trail = type { ptr }
%class.svector.16 = type { %class.vector.17 }
%class.vector.17 = type { ptr }
%"class.smt::theory_special_relations::atom" = type <{ i32, [4 x i8], ptr, i8, [3 x i8], i32, i32, i32, i32, [4 x i8] }>

; Function Attrs: mustprogress nounwind uwtable
define linkonce_odr hidden void @_ZN6vectorIN3sat7literalELb0EjE5resetEv(ptr noundef nonnull align 8 dereferenceable(8) %this) #4 comdat align 2 {
entry:
  %this.addr = alloca ptr, align 8
  store ptr %this, ptr %this.addr, align 8
  %this1 = load ptr, ptr %this.addr, align 8
  %m_data = getelementptr inbounds %class.vector.17, ptr %this1, i32 0, i32 0
  %0 = load ptr, ptr %m_data, align 8
  %tobool = icmp ne ptr %0, null
  br i1 %tobool, label %if.then, label %if.end

if.then:                                          ; preds = %entry
  %m_data2 = getelementptr inbounds %class.vector.17, ptr %this1, i32 0, i32 0
  %1 = load ptr, ptr %m_data2, align 8
  %arrayidx = getelementptr inbounds i32, ptr %1, i64 -1
  store i32 0, ptr %arrayidx, align 4
  br label %if.end

if.end:                                           ; preds = %if.then, %entry
  ret void
}

; Function Attrs: mustprogress nounwind uwtable
define linkonce_odr hidden noundef nonnull align 4 dereferenceable(4) ptr @_ZNK6vectorIjLb0EjEixEj(ptr noundef nonnull align 8 dereferenceable(8) %this, i32 noundef %idx) #4 comdat align 2 {
entry:
  %this.addr = alloca ptr, align 8
  %idx.addr = alloca i32, align 4
  store ptr %this, ptr %this.addr, align 8
  store i32 %idx, ptr %idx.addr, align 4
  %this1 = load ptr, ptr %this.addr, align 8
  %m_data = getelementptr inbounds %class.vector.12, ptr %this1, i32 0, i32 0
  %0 = load ptr, ptr %m_data, align 8
  %1 = load i32, ptr %idx.addr, align 4
  %idxprom = zext i32 %1 to i64
  %arrayidx = getelementptr inbounds i32, ptr %0, i64 %idxprom
  ret ptr %arrayidx
}

; Function Attrs: mustprogress uwtable
define hidden void @_ZN3smt24theory_special_relations22set_neg_cycle_conflictERNS0_8relationE(ptr noundef nonnull align 8 dereferenceable(145) %this, ptr noundef nonnull align 8 dereferenceable(552) %r) #5 align 2 {
entry:
  %this.addr = alloca ptr, align 8
  %r.addr = alloca ptr, align 8
  store ptr %this, ptr %this.addr, align 8
  store ptr %r, ptr %r.addr, align 8
  %this1 = load ptr, ptr %this.addr, align 8
  %0 = load ptr, ptr %r.addr, align 8
  %m_explanation = getelementptr inbounds %"struct.smt::theory_special_relations::relation", ptr %0, i32 0, i32 10
  call void @_ZN6vectorIN3sat7literalELb0EjE5resetEv(ptr noundef nonnull align 8 dereferenceable(8) %m_explanation)
  %1 = load ptr, ptr %r.addr, align 8
  %m_graph = getelementptr inbounds %"struct.smt::theory_special_relations::relation", ptr %1, i32 0, i32 7
  %2 = load ptr, ptr %r.addr, align 8
  call void @_ZN8dl_graphIN3smt24theory_special_relations7int_extEE19traverse_neg_cycle2INS1_8relationEEEvbRT_(ptr noundef nonnull align 8 dereferenceable(368) %m_graph, i1 noundef zeroext false, ptr noundef nonnull align 8 dereferenceable(552) %2)
  %3 = load ptr, ptr %r.addr, align 8
  call void @_ZN3smt24theory_special_relations12set_conflictERNS0_8relationE(ptr noundef nonnull align 8 dereferenceable(145) %this1, ptr noundef nonnull align 8 dereferenceable(552) %3)
  ret void
}

; Function Attrs: mustprogress nounwind uwtable
define linkonce_odr hidden noundef i32 @_ZNK10union_findI22union_find_default_ctxS0_E4findEj(ptr noundef nonnull align 8 dereferenceable(56) %this, i32 noundef %v) #4 comdat align 2 {
entry:
  %this.addr = alloca ptr, align 8
  %v.addr = alloca i32, align 4
  %new_v = alloca i32, align 4
  store ptr %this, ptr %this.addr, align 8
  store i32 %v, ptr %v.addr, align 4
  %this1 = load ptr, ptr %this.addr, align 8
  br label %while.body

while.body:                                       ; preds = %if.end, %entry
  %m_find = getelementptr inbounds %class.union_find, ptr %this1, i32 0, i32 2
  %0 = load i32, ptr %v.addr, align 4
  %call = call noundef nonnull align 4 dereferenceable(4) ptr @_ZNK6vectorIjLb0EjEixEj(ptr noundef nonnull align 8 dereferenceable(8) %m_find, i32 noundef %0)
  %1 = load i32, ptr %call, align 4
  store i32 %1, ptr %new_v, align 4
  %2 = load i32, ptr %new_v, align 4
  %3 = load i32, ptr %v.addr, align 4
  %cmp = icmp eq i32 %2, %3
  br i1 %cmp, label %if.then, label %if.end

if.then:                                          ; preds = %while.body
  %4 = load i32, ptr %v.addr, align 4
  ret i32 %4

if.end:                                           ; preds = %while.body
  %5 = load i32, ptr %new_v, align 4
  store i32 %5, ptr %v.addr, align 4
  br label %while.body, !llvm.loop !15
}

; Function Attrs: mustprogress uwtable
define hidden noundef i32 @_ZN3smt24theory_special_relations6enableERNS0_4atomE(ptr noundef nonnull align 8 dereferenceable(145) %this, ptr noundef nonnull align 8 dereferenceable(36) %a) #5 align 2 {
entry:
  %retval = alloca i32, align 4
  %this.addr = alloca ptr, align 8
  %a.addr = alloca ptr, align 8
  %r = alloca ptr, align 8
  store ptr %this, ptr %this.addr, align 8
  store ptr %a, ptr %a.addr, align 8
  %this1 = load ptr, ptr %this.addr, align 8
  %0 = load ptr, ptr %a.addr, align 8
  %call = call noundef zeroext i1 @_ZN3smt24theory_special_relations4atom6enableEv(ptr noundef nonnull align 8 dereferenceable(36) %0)
  br i1 %call, label %if.else, label %if.then

if.then:                                          ; preds = %entry
  %1 = load ptr, ptr %a.addr, align 8
  %call2 = call noundef nonnull align 8 dereferenceable(552) ptr @_ZNK3smt24theory_special_relations4atom12get_relationEv(ptr noundef nonnull align 8 dereferenceable(36) %1)
  store ptr %call2, ptr %r, align 8
  %2 = load ptr, ptr %r, align 8
  call void @_ZN3smt24theory_special_relations22set_neg_cycle_conflictERNS0_8relationE(ptr noundef nonnull align 8 dereferenceable(145) %this1, ptr noundef nonnull align 8 dereferenceable(552) %2)
  store i32 -1, ptr %retval, align 4
  br label %return

if.else:                                          ; preds = %entry
  store i32 1, ptr %retval, align 4
  br label %return

return:                                           ; preds = %if.else, %if.then
  %3 = load i32, ptr %retval, align 4
  ret i32 %3
}

; Function Attrs: mustprogress nounwind uwtable
define linkonce_odr hidden noundef i32 @_ZNK3smt24theory_special_relations4atom2v2Ev(ptr noundef nonnull align 8 dereferenceable(36) %this) #4 comdat align 2 {
entry:
  %this.addr = alloca ptr, align 8
  store ptr %this, ptr %this.addr, align 8
  %this1 = load ptr, ptr %this.addr, align 8
  %m_v2 = getelementptr inbounds %"class.smt::theory_special_relations::atom", ptr %this1, i32 0, i32 6
  %0 = load i32, ptr %m_v2, align 8
  ret i32 %0
}

; Function Attrs: mustprogress nounwind uwtable
define linkonce_odr hidden noundef i32 @_ZNK3smt24theory_special_relations4atom2v1Ev(ptr noundef nonnull align 8 dereferenceable(36) %this) #4 comdat align 2 {
entry:
  %this.addr = alloca ptr, align 8
  store ptr %this, ptr %this.addr, align 8
  %this1 = load ptr, ptr %this.addr, align 8
  %m_v1 = getelementptr inbounds %"class.smt::theory_special_relations::atom", ptr %this1, i32 0, i32 5
  %0 = load i32, ptr %m_v1, align 4
  ret i32 %0
}

; Function Attrs: mustprogress nounwind uwtable
define linkonce_odr hidden noundef zeroext i1 @_ZNK3smt24theory_special_relations4atom5phaseEv(ptr noundef nonnull align 8 dereferenceable(36) %this) #4 comdat align 2 {
entry:
  %this.addr = alloca ptr, align 8
  store ptr %this, ptr %this.addr, align 8
  %this1 = load ptr, ptr %this.addr, align 8
  %m_phase = getelementptr inbounds %"class.smt::theory_special_relations::atom", ptr %this1, i32 0, i32 3
  %0 = load i8, ptr %m_phase, align 8
  %tobool = trunc i8 %0 to i1
  ret i1 %tobool
}

; Function Attrs: mustprogress nounwind uwtable
define linkonce_odr hidden noundef nonnull align 8 dereferenceable(552) ptr @_ZNK3smt24theory_special_relations4atom12get_relationEv(ptr noundef nonnull align 8 dereferenceable(36) %this) #4 comdat align 2 {
entry:
  %this.addr = alloca ptr, align 8
  store ptr %this, ptr %this.addr, align 8
  %this1 = load ptr, ptr %this.addr, align 8
  %m_relation = getelementptr inbounds %"class.smt::theory_special_relations::atom", ptr %this1, i32 0, i32 2
  %0 = load ptr, ptr %m_relation, align 8
  ret ptr %0
}

; Function Attrs: mustprogress uwtable
define hidden noundef i32 @_ZN3smt24theory_special_relations13propagate_ploERNS0_4atomE(ptr noundef nonnull align 8 dereferenceable(145) %this, ptr noundef nonnull align 8 dereferenceable(36) %a) #5 align 2 {
entry:
  %this.addr = alloca ptr, align 8
  %a.addr = alloca ptr, align 8
  %res = alloca i32, align 4
  %r = alloca ptr, align 8
  store ptr %this, ptr %this.addr, align 8
  store ptr %a, ptr %a.addr, align 8
  %this1 = load ptr, ptr %this.addr, align 8
  store i32 1, ptr %res, align 4
  %0 = load ptr, ptr %a.addr, align 8
  %call = call noundef nonnull align 8 dereferenceable(552) ptr @_ZNK3smt24theory_special_relations4atom12get_relationEv(ptr noundef nonnull align 8 dereferenceable(36) %0)
  store ptr %call, ptr %r, align 8
  %1 = load ptr, ptr %a.addr, align 8
  %call2 = call noundef zeroext i1 @_ZNK3smt24theory_special_relations4atom5phaseEv(ptr noundef nonnull align 8 dereferenceable(36) %1)
  br i1 %call2, label %if.then, label %if.else

if.then:                                          ; preds = %entry
  %2 = load ptr, ptr %r, align 8
  %m_uf = getelementptr inbounds %"struct.smt::theory_special_relations::relation", ptr %2, i32 0, i32 9
  %3 = load ptr, ptr %a.addr, align 8
  %call3 = call noundef i32 @_ZNK3smt24theory_special_relations4atom2v1Ev(ptr noundef nonnull align 8 dereferenceable(36) %3)
  %4 = load ptr, ptr %a.addr, align 8
  %call4 = call noundef i32 @_ZNK3smt24theory_special_relations4atom2v2Ev(ptr noundef nonnull align 8 dereferenceable(36) %4)
  call void @_ZN10union_findI22union_find_default_ctxS0_E5mergeEjj(ptr noundef nonnull align 8 dereferenceable(56) %m_uf, i32 noundef %call3, i32 noundef %call4)
  %5 = load ptr, ptr %a.addr, align 8
  %call5 = call noundef i32 @_ZN3smt24theory_special_relations6enableERNS0_4atomE(ptr noundef nonnull align 8 dereferenceable(145) %this1, ptr noundef nonnull align 8 dereferenceable(36) %5)
  store i32 %call5, ptr %res, align 4
  br label %if.end14

if.else:                                          ; preds = %entry
  %6 = load ptr, ptr %r, align 8
  %m_uf6 = getelementptr inbounds %"struct.smt::theory_special_relations::relation", ptr %6, i32 0, i32 9
  %7 = load ptr, ptr %a.addr, align 8
  %call7 = call noundef i32 @_ZNK3smt24theory_special_relations4atom2v1Ev(ptr noundef nonnull align 8 dereferenceable(36) %7)
  %call8 = call noundef i32 @_ZNK10union_findI22union_find_default_ctxS0_E4findEj(ptr noundef nonnull align 8 dereferenceable(56) %m_uf6, i32 noundef %call7)
  %8 = load ptr, ptr %r, align 8
  %m_uf9 = getelementptr inbounds %"struct.smt::theory_special_relations::relation", ptr %8, i32 0, i32 9
  %9 = load ptr, ptr %a.addr, align 8
  %call10 = call noundef i32 @_ZNK3smt24theory_special_relations4atom2v2Ev(ptr noundef nonnull align 8 dereferenceable(36) %9)
  %call11 = call noundef i32 @_ZNK10union_findI22union_find_default_ctxS0_E4findEj(ptr noundef nonnull align 8 dereferenceable(56) %m_uf9, i32 noundef %call10)
  %cmp = icmp eq i32 %call8, %call11
  br i1 %cmp, label %if.then12, label %if.end

if.then12:                                        ; preds = %if.else
  %10 = load ptr, ptr %a.addr, align 8
  %call13 = call noundef i32 @_ZN3smt24theory_special_relations6enableERNS0_4atomE(ptr noundef nonnull align 8 dereferenceable(145) %this1, ptr noundef nonnull align 8 dereferenceable(36) %10)
  store i32 %call13, ptr %res, align 4
  br label %if.end

if.end:                                           ; preds = %if.then12, %if.else
  br label %if.end14

if.end14:                                         ; preds = %if.end, %if.then
  %11 = load i32, ptr %res, align 4
  ret i32 %11
}