; Function Attrs: mustprogress uwtable
define hidden noundef i32 @_ZN3smt24theory_special_relations13propagate_ploERNS0_4atomE(ptr nocapture noundef nonnull readonly align 8 dereferenceable(145) %this, ptr noundef nonnull align 8 dereferenceable(36) %a) local_unnamed_addr #3 align 2 {
entry:
  %m_relation.i = getelementptr inbounds i8, ptr %a, i64 8
  %0 = load ptr, ptr %m_relation.i, align 8
  %m_phase.i = getelementptr inbounds i8, ptr %a, i64 16
  %1 = load i8, ptr %m_phase.i, align 8
  %2 = and i8 %1, 1
  %tobool.i.not = icmp eq i8 %2, 0
  br i1 %tobool.i.not, label %if.else, label %if.then

if.then:                                          ; preds = %entry
  %m_uf = getelementptr inbounds i8, ptr %0, i64 488
  %m_v1.i = getelementptr inbounds i8, ptr %a, i64 20
  %3 = load i32, ptr %m_v1.i, align 4
  %m_v2.i = getelementptr inbounds i8, ptr %a, i64 24
  %4 = load i32, ptr %m_v2.i, align 8
  tail call void @_ZN10union_findI22union_find_default_ctxS0_E5mergeEjj(ptr noundef nonnull align 8 dereferenceable(56) %m_uf, i32 noundef %3, i32 noundef %4)
  %call.i = tail call noundef zeroext i1 @_ZN3smt24theory_special_relations4atom6enableEv(ptr noundef nonnull align 8 dereferenceable(36) %a)
  br i1 %call.i, label %if.end14, label %if.then.i

if.then.i:                                        ; preds = %if.then
  %5 = load ptr, ptr %m_relation.i, align 8
  %m_explanation.i.i = getelementptr inbounds i8, ptr %5, i64 544
  %6 = load ptr, ptr %m_explanation.i.i, align 8
  %tobool.not.i.i.i = icmp eq ptr %6, null
  br i1 %tobool.not.i.i.i, label %if.end14.sink.split, label %if.end14.sink.split.sink.split

if.else:                                          ; preds = %entry
  %m_v1.i10 = getelementptr inbounds i8, ptr %a, i64 20
  %7 = load i32, ptr %m_v1.i10, align 4
  %m_find.i = getelementptr inbounds i8, ptr %0, i64 504
  %8 = load ptr, ptr %m_find.i, align 8
  br label %while.body.i

while.body.i:                                     ; preds = %while.body.i, %if.else
  %v.addr.0.i = phi i32 [ %7, %if.else ], [ %9, %while.body.i ]
  %idxprom.i.i = zext i32 %v.addr.0.i to i64
  %arrayidx.i.i = getelementptr inbounds i32, ptr %8, i64 %idxprom.i.i
  %9 = load i32, ptr %arrayidx.i.i, align 4
  %cmp.i = icmp eq i32 %9, %v.addr.0.i
  br i1 %cmp.i, label %_ZNK10union_findI22union_find_default_ctxS0_E4findEj.exit, label %while.body.i, !llvm.loop !14

_ZNK10union_findI22union_find_default_ctxS0_E4findEj.exit: ; preds = %while.body.i
  %m_v2.i12 = getelementptr inbounds i8, ptr %a, i64 24
  %10 = load i32, ptr %m_v2.i12, align 8
  br label %while.body.i14

while.body.i14:                                   ; preds = %while.body.i14, %_ZNK10union_findI22union_find_default_ctxS0_E4findEj.exit
  %v.addr.0.i15 = phi i32 [ %10, %_ZNK10union_findI22union_find_default_ctxS0_E4findEj.exit ], [ %11, %while.body.i14 ]
  %idxprom.i.i16 = zext i32 %v.addr.0.i15 to i64
  %arrayidx.i.i17 = getelementptr inbounds i32, ptr %8, i64 %idxprom.i.i16
  %11 = load i32, ptr %arrayidx.i.i17, align 4
  %cmp.i18 = icmp eq i32 %11, %v.addr.0.i15
  br i1 %cmp.i18, label %_ZNK10union_findI22union_find_default_ctxS0_E4findEj.exit20, label %while.body.i14, !llvm.loop !14

_ZNK10union_findI22union_find_default_ctxS0_E4findEj.exit20: ; preds = %while.body.i14
  %cmp = icmp eq i32 %v.addr.0.i, %v.addr.0.i15
  br i1 %cmp, label %if.then12, label %if.end14

if.then12:                                        ; preds = %_ZNK10union_findI22union_find_default_ctxS0_E4findEj.exit20
  %call.i21 = tail call noundef zeroext i1 @_ZN3smt24theory_special_relations4atom6enableEv(ptr noundef nonnull align 8 dereferenceable(36) %a)
  br i1 %call.i21, label %if.end14, label %if.then.i22

if.then.i22:                                      ; preds = %if.then12
  %12 = load ptr, ptr %m_relation.i, align 8
  %m_explanation.i.i24 = getelementptr inbounds i8, ptr %12, i64 544
  %13 = load ptr, ptr %m_explanation.i.i24, align 8
  %tobool.not.i.i.i25 = icmp eq ptr %13, null
  br i1 %tobool.not.i.i.i25, label %if.end14.sink.split, label %if.end14.sink.split.sink.split

if.end14.sink.split.sink.split:                   ; preds = %if.then.i22, %if.then.i
  %.sink = phi ptr [ %6, %if.then.i ], [ %13, %if.then.i22 ]
  %.sink33.ph = phi ptr [ %5, %if.then.i ], [ %12, %if.then.i22 ]
  %arrayidx.i.i.i27 = getelementptr inbounds i8, ptr %.sink, i64 -4
  store i32 0, ptr %arrayidx.i.i.i27, align 4
  br label %if.end14.sink.split

if.end14.sink.split:                              ; preds = %if.end14.sink.split.sink.split, %if.then.i22, %if.then.i
  %.sink33 = phi ptr [ %5, %if.then.i ], [ %12, %if.then.i22 ], [ %.sink33.ph, %if.end14.sink.split.sink.split ]
  %m_graph.i.i29 = getelementptr inbounds i8, ptr %.sink33, i64 64
  tail call void @_ZN8dl_graphIN3smt24theory_special_relations7int_extEE19traverse_neg_cycle2INS1_8relationEEEvbRT_(ptr noundef nonnull align 8 dereferenceable(368) %m_graph.i.i29, i1 noundef zeroext false, ptr noundef nonnull align 8 dereferenceable(552) %.sink33)
  tail call void @_ZN3smt24theory_special_relations12set_conflictERNS0_8relationE(ptr noundef nonnull align 8 dereferenceable(145) %this, ptr noundef nonnull align 8 dereferenceable(552) %.sink33)
  br label %if.end14

if.end14:                                         ; preds = %if.end14.sink.split, %if.then12, %if.then, %_ZNK10union_findI22union_find_default_ctxS0_E4findEj.exit20
  %res.0 = phi i32 [ 1, %_ZNK10union_findI22union_find_default_ctxS0_E4findEj.exit20 ], [ 1, %if.then ], [ 1, %if.then12 ], [ -1, %if.end14.sink.split ]
  ret i32 %res.0
}